
main:     file format elf64-x86-64


Disassembly of section .init:

0000000000400bd8 <_init>:
  400bd8:	48 83 ec 08          	sub    $0x8,%rsp
  400bdc:	48 8b 05 2d 16 20 00 	mov    0x20162d(%rip),%rax        # 602210 <_DYNAMIC+0x1f0>
  400be3:	48 85 c0             	test   %rax,%rax
  400be6:	74 05                	je     400bed <_init+0x15>
  400be8:	e8 53 01 00 00       	callq  400d40 <memcpy@plt+0x10>
  400bed:	48 83 c4 08          	add    $0x8,%rsp
  400bf1:	c3                   	retq   

Disassembly of section .plt:

0000000000400c00 <_ZSt16__throw_bad_castv@plt-0x10>:
  400c00:	ff 35 1a 16 20 00    	pushq  0x20161a(%rip)        # 602220 <_GLOBAL_OFFSET_TABLE_+0x8>
  400c06:	ff 25 1c 16 20 00    	jmpq   *0x20161c(%rip)        # 602228 <_GLOBAL_OFFSET_TABLE_+0x10>
  400c0c:	0f 1f 40 00          	nopl   0x0(%rax)

0000000000400c10 <_ZSt16__throw_bad_castv@plt>:
  400c10:	ff 25 1a 16 20 00    	jmpq   *0x20161a(%rip)        # 602230 <_GLOBAL_OFFSET_TABLE_+0x18>
  400c16:	68 00 00 00 00       	pushq  $0x0
  400c1b:	e9 e0 ff ff ff       	jmpq   400c00 <_init+0x28>

0000000000400c20 <_ZdlPv@plt>:
  400c20:	ff 25 12 16 20 00    	jmpq   *0x201612(%rip)        # 602238 <_GLOBAL_OFFSET_TABLE_+0x20>
  400c26:	68 01 00 00 00       	pushq  $0x1
  400c2b:	e9 d0 ff ff ff       	jmpq   400c00 <_init+0x28>

0000000000400c30 <_ZNKSt5ctypeIcE13_M_widen_initEv@plt>:
  400c30:	ff 25 0a 16 20 00    	jmpq   *0x20160a(%rip)        # 602240 <_GLOBAL_OFFSET_TABLE_+0x28>
  400c36:	68 02 00 00 00       	pushq  $0x2
  400c3b:	e9 c0 ff ff ff       	jmpq   400c00 <_init+0x28>

0000000000400c40 <_ZNSt7__cxx1112basic_stringIcSt11char_traitsIcESaIcEE9_M_createERmm@plt>:
  400c40:	ff 25 02 16 20 00    	jmpq   *0x201602(%rip)        # 602248 <_GLOBAL_OFFSET_TABLE_+0x30>
  400c46:	68 03 00 00 00       	pushq  $0x3
  400c4b:	e9 b0 ff ff ff       	jmpq   400c00 <_init+0x28>

0000000000400c50 <_ZNSt8ios_base4InitC1Ev@plt>:
  400c50:	ff 25 fa 15 20 00    	jmpq   *0x2015fa(%rip)        # 602250 <_GLOBAL_OFFSET_TABLE_+0x38>
  400c56:	68 04 00 00 00       	pushq  $0x4
  400c5b:	e9 a0 ff ff ff       	jmpq   400c00 <_init+0x28>

0000000000400c60 <__libc_start_main@plt>:
  400c60:	ff 25 f2 15 20 00    	jmpq   *0x2015f2(%rip)        # 602258 <_GLOBAL_OFFSET_TABLE_+0x40>
  400c66:	68 05 00 00 00       	pushq  $0x5
  400c6b:	e9 90 ff ff ff       	jmpq   400c00 <_init+0x28>

0000000000400c70 <__cxa_atexit@plt>:
  400c70:	ff 25 ea 15 20 00    	jmpq   *0x2015ea(%rip)        # 602260 <_GLOBAL_OFFSET_TABLE_+0x48>
  400c76:	68 06 00 00 00       	pushq  $0x6
  400c7b:	e9 80 ff ff ff       	jmpq   400c00 <_init+0x28>

0000000000400c80 <_ZNSt8ios_base4InitD1Ev@plt>:
  400c80:	ff 25 e2 15 20 00    	jmpq   *0x2015e2(%rip)        # 602268 <_GLOBAL_OFFSET_TABLE_+0x50>
  400c86:	68 07 00 00 00       	pushq  $0x7
  400c8b:	e9 70 ff ff ff       	jmpq   400c00 <_init+0x28>

0000000000400c90 <_ZNSt7__cxx1112basic_stringIcSt11char_traitsIcESaIcEED2Ev@plt>:
  400c90:	ff 25 da 15 20 00    	jmpq   *0x2015da(%rip)        # 602270 <_GLOBAL_OFFSET_TABLE_+0x58>
  400c96:	68 08 00 00 00       	pushq  $0x8
  400c9b:	e9 60 ff ff ff       	jmpq   400c00 <_init+0x28>

0000000000400ca0 <_ZSt16__ostream_insertIcSt11char_traitsIcEERSt13basic_ostreamIT_T0_ES6_PKS3_l@plt>:
  400ca0:	ff 25 d2 15 20 00    	jmpq   *0x2015d2(%rip)        # 602278 <_GLOBAL_OFFSET_TABLE_+0x60>
  400ca6:	68 09 00 00 00       	pushq  $0x9
  400cab:	e9 50 ff ff ff       	jmpq   400c00 <_init+0x28>

0000000000400cb0 <vsnprintf@plt>:
  400cb0:	ff 25 ca 15 20 00    	jmpq   *0x2015ca(%rip)        # 602280 <_GLOBAL_OFFSET_TABLE_+0x68>
  400cb6:	68 0a 00 00 00       	pushq  $0xa
  400cbb:	e9 40 ff ff ff       	jmpq   400c00 <_init+0x28>

0000000000400cc0 <_ZNSo5flushEv@plt>:
  400cc0:	ff 25 c2 15 20 00    	jmpq   *0x2015c2(%rip)        # 602288 <_GLOBAL_OFFSET_TABLE_+0x70>
  400cc6:	68 0b 00 00 00       	pushq  $0xb
  400ccb:	e9 30 ff ff ff       	jmpq   400c00 <_init+0x28>

0000000000400cd0 <_ZNSt7__cxx1112basic_stringIcSt11char_traitsIcESaIcEE9_M_appendEPKcm@plt>:
  400cd0:	ff 25 ba 15 20 00    	jmpq   *0x2015ba(%rip)        # 602290 <_GLOBAL_OFFSET_TABLE_+0x78>
  400cd6:	68 0c 00 00 00       	pushq  $0xc
  400cdb:	e9 20 ff ff ff       	jmpq   400c00 <_init+0x28>

0000000000400ce0 <_ZSt17__throw_bad_allocv@plt>:
  400ce0:	ff 25 b2 15 20 00    	jmpq   *0x2015b2(%rip)        # 602298 <_GLOBAL_OFFSET_TABLE_+0x80>
  400ce6:	68 0d 00 00 00       	pushq  $0xd
  400ceb:	e9 10 ff ff ff       	jmpq   400c00 <_init+0x28>

0000000000400cf0 <__gxx_personality_v0@plt>:
  400cf0:	ff 25 aa 15 20 00    	jmpq   *0x2015aa(%rip)        # 6022a0 <_GLOBAL_OFFSET_TABLE_+0x88>
  400cf6:	68 0e 00 00 00       	pushq  $0xe
  400cfb:	e9 00 ff ff ff       	jmpq   400c00 <_init+0x28>

0000000000400d00 <_Znwm@plt>:
  400d00:	ff 25 a2 15 20 00    	jmpq   *0x2015a2(%rip)        # 6022a8 <_GLOBAL_OFFSET_TABLE_+0x90>
  400d06:	68 0f 00 00 00       	pushq  $0xf
  400d0b:	e9 f0 fe ff ff       	jmpq   400c00 <_init+0x28>

0000000000400d10 <_Unwind_Resume@plt>:
  400d10:	ff 25 9a 15 20 00    	jmpq   *0x20159a(%rip)        # 6022b0 <_GLOBAL_OFFSET_TABLE_+0x98>
  400d16:	68 10 00 00 00       	pushq  $0x10
  400d1b:	e9 e0 fe ff ff       	jmpq   400c00 <_init+0x28>

0000000000400d20 <_ZNSo3putEc@plt>:
  400d20:	ff 25 92 15 20 00    	jmpq   *0x201592(%rip)        # 6022b8 <_GLOBAL_OFFSET_TABLE_+0xa0>
  400d26:	68 11 00 00 00       	pushq  $0x11
  400d2b:	e9 d0 fe ff ff       	jmpq   400c00 <_init+0x28>

0000000000400d30 <memcpy@plt>:
  400d30:	ff 25 8a 15 20 00    	jmpq   *0x20158a(%rip)        # 6022c0 <_GLOBAL_OFFSET_TABLE_+0xa8>
  400d36:	68 12 00 00 00       	pushq  $0x12
  400d3b:	e9 c0 fe ff ff       	jmpq   400c00 <_init+0x28>

Disassembly of section .plt.got:

0000000000400d40 <.plt.got>:
  400d40:	ff 25 ca 14 20 00    	jmpq   *0x2014ca(%rip)        # 602210 <_DYNAMIC+0x1f0>
  400d46:	66 90                	xchg   %ax,%ax

Disassembly of section .text:

0000000000400d50 <_GLOBAL__sub_I_execute.cpp>:
  400d50:	50                   	push   %rax
  400d51:	bf d0 24 60 00       	mov    $0x6024d0,%edi
  400d56:	e8 f5 fe ff ff       	callq  400c50 <_ZNSt8ios_base4InitC1Ev@plt>
  400d5b:	bf 80 0c 40 00       	mov    $0x400c80,%edi
  400d60:	be d0 24 60 00       	mov    $0x6024d0,%esi
  400d65:	ba d0 22 60 00       	mov    $0x6022d0,%edx
  400d6a:	e8 01 ff ff ff       	callq  400c70 <__cxa_atexit@plt>
  400d6f:	48 c7 05 36 17 20 00 	movq   $0x6024c0,0x201736(%rip)        # 6024b0 <_ZL9SEPARATOR>
  400d76:	c0 24 60 00 
  400d7a:	66 c7 05 3d 17 20 00 	movw   $0x202c,0x20173d(%rip)        # 6024c0 <_ZL9SEPARATOR+0x10>
  400d81:	2c 20 
  400d83:	48 c7 05 2a 17 20 00 	movq   $0x2,0x20172a(%rip)        # 6024b8 <_ZL9SEPARATOR+0x8>
  400d8a:	02 00 00 00 
  400d8e:	c6 05 2d 17 20 00 00 	movb   $0x0,0x20172d(%rip)        # 6024c2 <_ZL9SEPARATOR+0x12>
  400d95:	bf 90 0c 40 00       	mov    $0x400c90,%edi
  400d9a:	be b0 24 60 00       	mov    $0x6024b0,%esi
  400d9f:	ba d0 22 60 00       	mov    $0x6022d0,%edx
  400da4:	58                   	pop    %rax
  400da5:	e9 c6 fe ff ff       	jmpq   400c70 <__cxa_atexit@plt>
  400daa:	66 0f 1f 44 00 00    	nopw   0x0(%rax,%rax,1)

0000000000400db0 <_start>:
  400db0:	31 ed                	xor    %ebp,%ebp
  400db2:	49 89 d1             	mov    %rdx,%r9
  400db5:	5e                   	pop    %rsi
  400db6:	48 89 e2             	mov    %rsp,%rdx
  400db9:	48 83 e4 f0          	and    $0xfffffffffffffff0,%rsp
  400dbd:	50                   	push   %rax
  400dbe:	54                   	push   %rsp
  400dbf:	49 c7 c0 a0 17 40 00 	mov    $0x4017a0,%r8
  400dc6:	48 c7 c1 30 17 40 00 	mov    $0x401730,%rcx
  400dcd:	48 c7 c7 b0 0e 40 00 	mov    $0x400eb0,%rdi
  400dd4:	e8 87 fe ff ff       	callq  400c60 <__libc_start_main@plt>
  400dd9:	f4                   	hlt    
  400dda:	66 0f 1f 44 00 00    	nopw   0x0(%rax,%rax,1)

0000000000400de0 <deregister_tm_clones>:
  400de0:	b8 df 22 60 00       	mov    $0x6022df,%eax
  400de5:	55                   	push   %rbp
  400de6:	48 2d d8 22 60 00    	sub    $0x6022d8,%rax
  400dec:	48 83 f8 0e          	cmp    $0xe,%rax
  400df0:	48 89 e5             	mov    %rsp,%rbp
  400df3:	76 1b                	jbe    400e10 <deregister_tm_clones+0x30>
  400df5:	b8 00 00 00 00       	mov    $0x0,%eax
  400dfa:	48 85 c0             	test   %rax,%rax
  400dfd:	74 11                	je     400e10 <deregister_tm_clones+0x30>
  400dff:	5d                   	pop    %rbp
  400e00:	bf d8 22 60 00       	mov    $0x6022d8,%edi
  400e05:	ff e0                	jmpq   *%rax
  400e07:	66 0f 1f 84 00 00 00 	nopw   0x0(%rax,%rax,1)
  400e0e:	00 00 
  400e10:	5d                   	pop    %rbp
  400e11:	c3                   	retq   
  400e12:	0f 1f 40 00          	nopl   0x0(%rax)
  400e16:	66 2e 0f 1f 84 00 00 	nopw   %cs:0x0(%rax,%rax,1)
  400e1d:	00 00 00 

0000000000400e20 <register_tm_clones>:
  400e20:	be d8 22 60 00       	mov    $0x6022d8,%esi
  400e25:	55                   	push   %rbp
  400e26:	48 81 ee d8 22 60 00 	sub    $0x6022d8,%rsi
  400e2d:	48 c1 fe 03          	sar    $0x3,%rsi
  400e31:	48 89 e5             	mov    %rsp,%rbp
  400e34:	48 89 f0             	mov    %rsi,%rax
  400e37:	48 c1 e8 3f          	shr    $0x3f,%rax
  400e3b:	48 01 c6             	add    %rax,%rsi
  400e3e:	48 d1 fe             	sar    %rsi
  400e41:	74 15                	je     400e58 <register_tm_clones+0x38>
  400e43:	b8 00 00 00 00       	mov    $0x0,%eax
  400e48:	48 85 c0             	test   %rax,%rax
  400e4b:	74 0b                	je     400e58 <register_tm_clones+0x38>
  400e4d:	5d                   	pop    %rbp
  400e4e:	bf d8 22 60 00       	mov    $0x6022d8,%edi
  400e53:	ff e0                	jmpq   *%rax
  400e55:	0f 1f 00             	nopl   (%rax)
  400e58:	5d                   	pop    %rbp
  400e59:	c3                   	retq   
  400e5a:	66 0f 1f 44 00 00    	nopw   0x0(%rax,%rax,1)

0000000000400e60 <__do_global_dtors_aux>:
  400e60:	80 3d 41 16 20 00 00 	cmpb   $0x0,0x201641(%rip)        # 6024a8 <completed.7585>
  400e67:	75 11                	jne    400e7a <__do_global_dtors_aux+0x1a>
  400e69:	55                   	push   %rbp
  400e6a:	48 89 e5             	mov    %rsp,%rbp
  400e6d:	e8 6e ff ff ff       	callq  400de0 <deregister_tm_clones>
  400e72:	5d                   	pop    %rbp
  400e73:	c6 05 2e 16 20 00 01 	movb   $0x1,0x20162e(%rip)        # 6024a8 <completed.7585>
  400e7a:	f3 c3                	repz retq 
  400e7c:	0f 1f 40 00          	nopl   0x0(%rax)

0000000000400e80 <frame_dummy>:
  400e80:	bf 18 20 60 00       	mov    $0x602018,%edi
  400e85:	48 83 3f 00          	cmpq   $0x0,(%rdi)
  400e89:	75 05                	jne    400e90 <frame_dummy+0x10>
  400e8b:	eb 93                	jmp    400e20 <register_tm_clones>
  400e8d:	0f 1f 00             	nopl   (%rax)
  400e90:	b8 00 00 00 00       	mov    $0x0,%eax
  400e95:	48 85 c0             	test   %rax,%rax
  400e98:	74 f1                	je     400e8b <frame_dummy+0xb>
  400e9a:	55                   	push   %rbp
  400e9b:	48 89 e5             	mov    %rsp,%rbp
  400e9e:	ff d0                	callq  *%rax
  400ea0:	5d                   	pop    %rbp
  400ea1:	e9 7a ff ff ff       	jmpq   400e20 <register_tm_clones>
  400ea6:	66 2e 0f 1f 84 00 00 	nopw   %cs:0x0(%rax,%rax,1)
  400ead:	00 00 00 

0000000000400eb0 <main>:
  400eb0:	55                   	push   %rbp
  400eb1:	41 57                	push   %r15
  400eb3:	41 56                	push   %r14
  400eb5:	41 55                	push   %r13
  400eb7:	41 54                	push   %r12
  400eb9:	53                   	push   %rbx
  400eba:	48 81 ec 08 01 00 00 	sub    $0x108,%rsp
  400ec1:	0f 57 c0             	xorps  %xmm0,%xmm0
  400ec4:	0f 29 84 24 90 00 00 	movaps %xmm0,0x90(%rsp)
  400ecb:	00 
  400ecc:	48 c7 84 24 a0 00 00 	movq   $0x0,0xa0(%rsp)
  400ed3:	00 00 00 00 00 
  400ed8:	0f 28 05 e1 08 00 00 	movaps 0x8e1(%rip),%xmm0        # 4017c0 <_IO_stdin_used+0x10>
  400edf:	0f 29 44 24 70       	movaps %xmm0,0x70(%rsp)
  400ee4:	0f 28 05 e5 08 00 00 	movaps 0x8e5(%rip),%xmm0        # 4017d0 <_IO_stdin_used+0x20>
  400eeb:	0f 29 84 24 80 00 00 	movaps %xmm0,0x80(%rsp)
  400ef2:	00 
  400ef3:	48 8d bc 24 90 00 00 	lea    0x90(%rsp),%rdi
  400efa:	00 
  400efb:	48 8d 74 24 70       	lea    0x70(%rsp),%rsi
  400f00:	e8 ab 05 00 00       	callq  4014b0 <_ZNSt6vectorISt5tupleIJllllEESaIS1_EE19_M_emplace_back_auxIJS1_EEEvDpOT_>
  400f05:	48 8b 9c 24 98 00 00 	mov    0x98(%rsp),%rbx
  400f0c:	00 
  400f0d:	0f 28 05 cc 08 00 00 	movaps 0x8cc(%rip),%xmm0        # 4017e0 <_IO_stdin_used+0x30>
  400f14:	48 3b 9c 24 a0 00 00 	cmp    0xa0(%rsp),%rbx
  400f1b:	00 
  400f1c:	0f 29 44 24 50       	movaps %xmm0,0x50(%rsp)
  400f21:	0f 28 0d c8 08 00 00 	movaps 0x8c8(%rip),%xmm1        # 4017f0 <_IO_stdin_used+0x40>
  400f28:	0f 29 4c 24 60       	movaps %xmm1,0x60(%rsp)
  400f2d:	74 15                	je     400f44 <main+0x94>
  400f2f:	0f 11 03             	movups %xmm0,(%rbx)
  400f32:	0f 11 4b 10          	movups %xmm1,0x10(%rbx)
  400f36:	48 83 c3 20          	add    $0x20,%rbx
  400f3a:	48 89 9c 24 98 00 00 	mov    %rbx,0x98(%rsp)
  400f41:	00 
  400f42:	eb 1a                	jmp    400f5e <main+0xae>
  400f44:	48 8d bc 24 90 00 00 	lea    0x90(%rsp),%rdi
  400f4b:	00 
  400f4c:	48 8d 74 24 50       	lea    0x50(%rsp),%rsi
  400f51:	e8 5a 05 00 00       	callq  4014b0 <_ZNSt6vectorISt5tupleIJllllEESaIS1_EE19_M_emplace_back_auxIJS1_EEEvDpOT_>
  400f56:	48 8b 9c 24 98 00 00 	mov    0x98(%rsp),%rbx
  400f5d:	00 
  400f5e:	48 c7 44 24 28 10 18 	movq   $0x401810,0x28(%rsp)
  400f65:	40 00 
  400f67:	0f 57 c0             	xorps  %xmm0,%xmm0
  400f6a:	0f 11 44 24 40       	movups %xmm0,0x40(%rsp)
  400f6f:	0f 11 44 24 30       	movups %xmm0,0x30(%rsp)
  400f74:	48 8b ac 24 90 00 00 	mov    0x90(%rsp),%rbp
  400f7b:	00 
  400f7c:	49 89 dc             	mov    %rbx,%r12
  400f7f:	49 29 ec             	sub    %rbp,%r12
  400f82:	4d 89 e6             	mov    %r12,%r14
  400f85:	49 c1 fe 05          	sar    $0x5,%r14
  400f89:	74 76                	je     401001 <main+0x151>
  400f8b:	4c 89 f0             	mov    %r14,%rax
  400f8e:	48 c1 e8 3b          	shr    $0x3b,%rax
  400f92:	0f 85 c7 04 00 00    	jne    40145f <main+0x5af>
  400f98:	4c 89 e7             	mov    %r12,%rdi
  400f9b:	e8 60 fd ff ff       	callq  400d00 <_Znwm@plt>
  400fa0:	49 89 c7             	mov    %rax,%r15
  400fa3:	48 39 dd             	cmp    %rbx,%rbp
  400fa6:	0f 84 88 01 00 00    	je     401134 <main+0x284>
  400fac:	49 83 c4 e0          	add    $0xffffffffffffffe0,%r12
  400fb0:	44 89 e0             	mov    %r12d,%eax
  400fb3:	c1 e8 05             	shr    $0x5,%eax
  400fb6:	ff c0                	inc    %eax
  400fb8:	a8 07                	test   $0x7,%al
  400fba:	0f 84 93 00 00 00    	je     401053 <main+0x1a3>
  400fc0:	44 89 e1             	mov    %r12d,%ecx
  400fc3:	c1 e9 05             	shr    $0x5,%ecx
  400fc6:	ff c1                	inc    %ecx
  400fc8:	83 e1 07             	and    $0x7,%ecx
  400fcb:	48 89 ca             	mov    %rcx,%rdx
  400fce:	48 c1 e2 05          	shl    $0x5,%rdx
  400fd2:	49 8d 04 17          	lea    (%r15,%rdx,1),%rax
  400fd6:	48 f7 d9             	neg    %rcx
  400fd9:	4c 89 fe             	mov    %r15,%rsi
  400fdc:	48 89 ef             	mov    %rbp,%rdi
  400fdf:	90                   	nop
  400fe0:	0f 10 07             	movups (%rdi),%xmm0
  400fe3:	0f 10 4f 10          	movups 0x10(%rdi),%xmm1
  400fe7:	0f 11 4e 10          	movups %xmm1,0x10(%rsi)
  400feb:	0f 11 06             	movups %xmm0,(%rsi)
  400fee:	48 83 c7 20          	add    $0x20,%rdi
  400ff2:	48 83 c6 20          	add    $0x20,%rsi
  400ff6:	48 ff c1             	inc    %rcx
  400ff9:	75 e5                	jne    400fe0 <main+0x130>
  400ffb:	48 8d 0c 2a          	lea    (%rdx,%rbp,1),%rcx
  400fff:	eb 58                	jmp    401059 <main+0x1a9>
  401001:	48 8d 44 24 38       	lea    0x38(%rsp),%rax
  401006:	45 31 ff             	xor    %r15d,%r15d
  401009:	b9 10 18 40 00       	mov    $0x401810,%ecx
  40100e:	4d 85 e4             	test   %r12,%r12
  401011:	0f 8e 4d 01 00 00    	jle    401164 <main+0x2b4>
  401017:	49 8d 56 01          	lea    0x1(%r14),%rdx
  40101b:	be 10 00 00 00       	mov    $0x10,%esi
  401020:	45 31 ff             	xor    %r15d,%r15d
  401023:	b9 10 18 40 00       	mov    $0x401810,%ecx
  401028:	0f 1f 84 00 00 00 00 	nopl   0x0(%rax,%rax,1)
  40102f:	00 
  401030:	0f 10 44 35 00       	movups 0x0(%rbp,%rsi,1),%xmm0
  401035:	0f 11 06             	movups %xmm0,(%rsi)
  401038:	0f 10 44 35 f0       	movups -0x10(%rbp,%rsi,1),%xmm0
  40103d:	0f 11 46 f0          	movups %xmm0,-0x10(%rsi)
  401041:	48 ff ca             	dec    %rdx
  401044:	48 83 c6 20          	add    $0x20,%rsi
  401048:	48 83 fa 01          	cmp    $0x1,%rdx
  40104c:	7f e2                	jg     401030 <main+0x180>
  40104e:	e9 11 01 00 00       	jmpq   401164 <main+0x2b4>
  401053:	4c 89 f8             	mov    %r15,%rax
  401056:	48 89 e9             	mov    %rbp,%rcx
  401059:	49 81 fc e0 00 00 00 	cmp    $0xe0,%r12
  401060:	0f 82 ce 00 00 00    	jb     401134 <main+0x284>
  401066:	66 2e 0f 1f 84 00 00 	nopw   %cs:0x0(%rax,%rax,1)
  40106d:	00 00 00 
  401070:	0f 10 01             	movups (%rcx),%xmm0
  401073:	0f 10 49 10          	movups 0x10(%rcx),%xmm1
  401077:	0f 11 48 10          	movups %xmm1,0x10(%rax)
  40107b:	0f 11 00             	movups %xmm0,(%rax)
  40107e:	0f 10 41 20          	movups 0x20(%rcx),%xmm0
  401082:	0f 10 49 30          	movups 0x30(%rcx),%xmm1
  401086:	0f 11 48 30          	movups %xmm1,0x30(%rax)
  40108a:	0f 11 40 20          	movups %xmm0,0x20(%rax)
  40108e:	0f 10 41 40          	movups 0x40(%rcx),%xmm0
  401092:	0f 10 49 50          	movups 0x50(%rcx),%xmm1
  401096:	0f 11 48 50          	movups %xmm1,0x50(%rax)
  40109a:	0f 11 40 40          	movups %xmm0,0x40(%rax)
  40109e:	0f 10 41 60          	movups 0x60(%rcx),%xmm0
  4010a2:	0f 10 49 70          	movups 0x70(%rcx),%xmm1
  4010a6:	0f 11 48 70          	movups %xmm1,0x70(%rax)
  4010aa:	0f 11 40 60          	movups %xmm0,0x60(%rax)
  4010ae:	0f 10 81 80 00 00 00 	movups 0x80(%rcx),%xmm0
  4010b5:	0f 10 89 90 00 00 00 	movups 0x90(%rcx),%xmm1
  4010bc:	0f 11 88 90 00 00 00 	movups %xmm1,0x90(%rax)
  4010c3:	0f 11 80 80 00 00 00 	movups %xmm0,0x80(%rax)
  4010ca:	0f 10 81 a0 00 00 00 	movups 0xa0(%rcx),%xmm0
  4010d1:	0f 10 89 b0 00 00 00 	movups 0xb0(%rcx),%xmm1
  4010d8:	0f 11 88 b0 00 00 00 	movups %xmm1,0xb0(%rax)
  4010df:	0f 11 80 a0 00 00 00 	movups %xmm0,0xa0(%rax)
  4010e6:	0f 10 81 c0 00 00 00 	movups 0xc0(%rcx),%xmm0
  4010ed:	0f 10 89 d0 00 00 00 	movups 0xd0(%rcx),%xmm1
  4010f4:	0f 11 88 d0 00 00 00 	movups %xmm1,0xd0(%rax)
  4010fb:	0f 11 80 c0 00 00 00 	movups %xmm0,0xc0(%rax)
  401102:	0f 10 81 e0 00 00 00 	movups 0xe0(%rcx),%xmm0
  401109:	0f 10 89 f0 00 00 00 	movups 0xf0(%rcx),%xmm1
  401110:	0f 11 88 f0 00 00 00 	movups %xmm1,0xf0(%rax)
  401117:	0f 11 80 e0 00 00 00 	movups %xmm0,0xe0(%rax)
  40111e:	48 81 c1 00 01 00 00 	add    $0x100,%rcx
  401125:	48 05 00 01 00 00    	add    $0x100,%rax
  40112b:	48 39 d9             	cmp    %rbx,%rcx
  40112e:	0f 85 3c ff ff ff    	jne    401070 <main+0x1c0>
  401134:	48 8b 7c 24 30       	mov    0x30(%rsp),%rdi
  401139:	48 85 ff             	test   %rdi,%rdi
  40113c:	74 05                	je     401143 <main+0x293>
  40113e:	e8 dd fa ff ff       	callq  400c20 <_ZdlPv@plt>
  401143:	4c 89 7c 24 30       	mov    %r15,0x30(%rsp)
  401148:	4c 89 f0             	mov    %r14,%rax
  40114b:	48 c1 e0 05          	shl    $0x5,%rax
  40114f:	4c 89 f9             	mov    %r15,%rcx
  401152:	48 01 c1             	add    %rax,%rcx
  401155:	48 89 4c 24 40       	mov    %rcx,0x40(%rsp)
  40115a:	48 8d 44 24 38       	lea    0x38(%rsp),%rax
  40115f:	48 8b 4c 24 28       	mov    0x28(%rsp),%rcx
  401164:	49 c1 e6 05          	shl    $0x5,%r14
  401168:	4d 01 fe             	add    %r15,%r14
  40116b:	4c 89 30             	mov    %r14,(%rax)
  40116e:	48 8b 41 08          	mov    0x8(%rcx),%rax
  401172:	48 8d 7c 24 28       	lea    0x28(%rsp),%rdi
  401177:	ff d0                	callq  *%rax
  401179:	48 89 2c 24          	mov    %rbp,(%rsp)
  40117d:	48 8b 44 24 48       	mov    0x48(%rsp),%rax
  401182:	48 3b 44 24 38       	cmp    0x38(%rsp),%rax
  401187:	0f 84 ea 01 00 00    	je     401377 <main+0x4c7>
  40118d:	4c 8d 74 24 18       	lea    0x18(%rsp),%r14
  401192:	4c 8d a4 24 d8 00 00 	lea    0xd8(%rsp),%r12
  401199:	00 
  40119a:	4c 8d bc 24 a8 00 00 	lea    0xa8(%rsp),%r15
  4011a1:	00 
  4011a2:	4c 8d 6c 24 08       	lea    0x8(%rsp),%r13
  4011a7:	66 0f 1f 84 00 00 00 	nopw   0x0(%rax,%rax,1)
  4011ae:	00 00 
  4011b0:	4c 8b 40 10          	mov    0x10(%rax),%r8
  4011b4:	48 8b 58 18          	mov    0x18(%rax),%rbx
  4011b8:	48 83 c0 20          	add    $0x20,%rax
  4011bc:	48 89 44 24 48       	mov    %rax,0x48(%rsp)
  4011c1:	4c 89 74 24 08       	mov    %r14,0x8(%rsp)
  4011c6:	48 c7 44 24 10 00 00 	movq   $0x0,0x10(%rsp)
  4011cd:	00 00 
  4011cf:	c6 44 24 18 00       	movb   $0x0,0x18(%rsp)
  4011d4:	31 c0                	xor    %eax,%eax
  4011d6:	4c 89 ff             	mov    %r15,%rdi
  4011d9:	e8 32 04 00 00       	callq  401610 <_ZN9__gnu_cxx12__to_xstringINSt7__cxx1112basic_stringIcSt11char_traitsIcESaIcEEEcEET_PFiPT0_mPKS8_P13__va_list_tagEmSB_z>
  4011de:	48 8b 35 cb 12 20 00 	mov    0x2012cb(%rip),%rsi        # 6024b0 <_ZL9SEPARATOR>
  4011e5:	48 8b 15 cc 12 20 00 	mov    0x2012cc(%rip),%rdx        # 6024b8 <_ZL9SEPARATOR+0x8>
  4011ec:	4c 89 ff             	mov    %r15,%rdi
  4011ef:	e8 dc fa ff ff       	callq  400cd0 <_ZNSt7__cxx1112basic_stringIcSt11char_traitsIcESaIcEE9_M_appendEPKcm@plt>
  4011f4:	4c 89 a4 24 c8 00 00 	mov    %r12,0xc8(%rsp)
  4011fb:	00 
  4011fc:	48 8b 10             	mov    (%rax),%rdx
  4011ff:	48 89 c1             	mov    %rax,%rcx
  401202:	48 83 c1 10          	add    $0x10,%rcx
  401206:	48 39 ca             	cmp    %rcx,%rdx
  401209:	74 25                	je     401230 <main+0x380>
  40120b:	48 89 94 24 c8 00 00 	mov    %rdx,0xc8(%rsp)
  401212:	00 
  401213:	48 8b 50 10          	mov    0x10(%rax),%rdx
  401217:	48 89 94 24 d8 00 00 	mov    %rdx,0xd8(%rsp)
  40121e:	00 
  40121f:	eb 17                	jmp    401238 <main+0x388>
  401221:	66 66 66 66 66 66 2e 	data16 data16 data16 data16 data16 nopw %cs:0x0(%rax,%rax,1)
  401228:	0f 1f 84 00 00 00 00 
  40122f:	00 
  401230:	0f 10 02             	movups (%rdx),%xmm0
  401233:	41 0f 11 04 24       	movups %xmm0,(%r12)
  401238:	48 8b 50 08          	mov    0x8(%rax),%rdx
  40123c:	48 89 94 24 d0 00 00 	mov    %rdx,0xd0(%rsp)
  401243:	00 
  401244:	48 89 08             	mov    %rcx,(%rax)
  401247:	48 c7 40 08 00 00 00 	movq   $0x0,0x8(%rax)
  40124e:	00 
  40124f:	c6 40 10 00          	movb   $0x0,0x10(%rax)
  401253:	48 8b b4 24 c8 00 00 	mov    0xc8(%rsp),%rsi
  40125a:	00 
  40125b:	48 8b 94 24 d0 00 00 	mov    0xd0(%rsp),%rdx
  401262:	00 
  401263:	4c 89 ef             	mov    %r13,%rdi
  401266:	e8 65 fa ff ff       	callq  400cd0 <_ZNSt7__cxx1112basic_stringIcSt11char_traitsIcESaIcEE9_M_appendEPKcm@plt>
  40126b:	48 8b bc 24 c8 00 00 	mov    0xc8(%rsp),%rdi
  401272:	00 
  401273:	4c 39 e7             	cmp    %r12,%rdi
  401276:	74 05                	je     40127d <main+0x3cd>
  401278:	e8 a3 f9 ff ff       	callq  400c20 <_ZdlPv@plt>
  40127d:	48 8b bc 24 a8 00 00 	mov    0xa8(%rsp),%rdi
  401284:	00 
  401285:	48 8d 84 24 b8 00 00 	lea    0xb8(%rsp),%rax
  40128c:	00 
  40128d:	48 39 c7             	cmp    %rax,%rdi
  401290:	74 05                	je     401297 <main+0x3e7>
  401292:	e8 89 f9 ff ff       	callq  400c20 <_ZdlPv@plt>
  401297:	31 c0                	xor    %eax,%eax
  401299:	48 8d bc 24 e8 00 00 	lea    0xe8(%rsp),%rdi
  4012a0:	00 
  4012a1:	49 89 d8             	mov    %rbx,%r8
  4012a4:	e8 67 03 00 00       	callq  401610 <_ZN9__gnu_cxx12__to_xstringINSt7__cxx1112basic_stringIcSt11char_traitsIcESaIcEEEcEET_PFiPT0_mPKS8_P13__va_list_tagEmSB_z>
  4012a9:	48 8b b4 24 e8 00 00 	mov    0xe8(%rsp),%rsi
  4012b0:	00 
  4012b1:	48 8b 94 24 f0 00 00 	mov    0xf0(%rsp),%rdx
  4012b8:	00 
  4012b9:	4c 89 ef             	mov    %r13,%rdi
  4012bc:	e8 0f fa ff ff       	callq  400cd0 <_ZNSt7__cxx1112basic_stringIcSt11char_traitsIcESaIcEE9_M_appendEPKcm@plt>
  4012c1:	48 8b bc 24 e8 00 00 	mov    0xe8(%rsp),%rdi
  4012c8:	00 
  4012c9:	48 8d 84 24 f8 00 00 	lea    0xf8(%rsp),%rax
  4012d0:	00 
  4012d1:	48 39 c7             	cmp    %rax,%rdi
  4012d4:	74 05                	je     4012db <main+0x42b>
  4012d6:	e8 45 f9 ff ff       	callq  400c20 <_ZdlPv@plt>
  4012db:	48 8b 74 24 08       	mov    0x8(%rsp),%rsi
  4012e0:	48 8b 54 24 10       	mov    0x10(%rsp),%rdx
  4012e5:	bf 40 23 60 00       	mov    $0x602340,%edi
  4012ea:	e8 b1 f9 ff ff       	callq  400ca0 <_ZSt16__ostream_insertIcSt11char_traitsIcEERSt13basic_ostreamIT_T0_ES6_PKS3_l@plt>
  4012ef:	48 89 c3             	mov    %rax,%rbx
  4012f2:	48 8b 03             	mov    (%rbx),%rax
  4012f5:	48 8b 40 e8          	mov    -0x18(%rax),%rax
  4012f9:	48 8b ac 03 f0 00 00 	mov    0xf0(%rbx,%rax,1),%rbp
  401300:	00 
  401301:	48 85 ed             	test   %rbp,%rbp
  401304:	74 68                	je     40136e <main+0x4be>
  401306:	80 7d 38 00          	cmpb   $0x0,0x38(%rbp)
  40130a:	74 14                	je     401320 <main+0x470>
  40130c:	8a 45 43             	mov    0x43(%rbp),%al
  40130f:	eb 29                	jmp    40133a <main+0x48a>
  401311:	66 66 66 66 66 66 2e 	data16 data16 data16 data16 data16 nopw %cs:0x0(%rax,%rax,1)
  401318:	0f 1f 84 00 00 00 00 
  40131f:	00 
  401320:	48 89 ef             	mov    %rbp,%rdi
  401323:	e8 08 f9 ff ff       	callq  400c30 <_ZNKSt5ctypeIcE13_M_widen_initEv@plt>
  401328:	48 8b 45 00          	mov    0x0(%rbp),%rax
  40132c:	48 8b 40 30          	mov    0x30(%rax),%rax
  401330:	be 0a 00 00 00       	mov    $0xa,%esi
  401335:	48 89 ef             	mov    %rbp,%rdi
  401338:	ff d0                	callq  *%rax
  40133a:	0f be f0             	movsbl %al,%esi
  40133d:	48 89 df             	mov    %rbx,%rdi
  401340:	e8 db f9 ff ff       	callq  400d20 <_ZNSo3putEc@plt>
  401345:	48 89 c7             	mov    %rax,%rdi
  401348:	e8 73 f9 ff ff       	callq  400cc0 <_ZNSo5flushEv@plt>
  40134d:	48 8b 7c 24 08       	mov    0x8(%rsp),%rdi
  401352:	4c 39 f7             	cmp    %r14,%rdi
  401355:	74 05                	je     40135c <main+0x4ac>
  401357:	e8 c4 f8 ff ff       	callq  400c20 <_ZdlPv@plt>
  40135c:	48 8b 44 24 48       	mov    0x48(%rsp),%rax
  401361:	48 3b 44 24 38       	cmp    0x38(%rsp),%rax
  401366:	0f 85 44 fe ff ff    	jne    4011b0 <main+0x300>
  40136c:	eb 09                	jmp    401377 <main+0x4c7>
  40136e:	e8 9d f8 ff ff       	callq  400c10 <_ZSt16__throw_bad_castv@plt>
  401373:	eb 91                	jmp    401306 <main+0x456>
  401375:	eb 3c                	jmp    4013b3 <main+0x503>
  401377:	48 c7 44 24 28 10 18 	movq   $0x401810,0x28(%rsp)
  40137e:	40 00 
  401380:	48 8b 7c 24 30       	mov    0x30(%rsp),%rdi
  401385:	48 85 ff             	test   %rdi,%rdi
  401388:	74 05                	je     40138f <main+0x4df>
  40138a:	e8 91 f8 ff ff       	callq  400c20 <_ZdlPv@plt>
  40138f:	48 8b 3c 24          	mov    (%rsp),%rdi
  401393:	48 85 ff             	test   %rdi,%rdi
  401396:	74 05                	je     40139d <main+0x4ed>
  401398:	e8 83 f8 ff ff       	callq  400c20 <_ZdlPv@plt>
  40139d:	31 c0                	xor    %eax,%eax
  40139f:	48 81 c4 08 01 00 00 	add    $0x108,%rsp
  4013a6:	5b                   	pop    %rbx
  4013a7:	41 5c                	pop    %r12
  4013a9:	41 5d                	pop    %r13
  4013ab:	41 5e                	pop    %r14
  4013ad:	41 5f                	pop    %r15
  4013af:	5d                   	pop    %rbp
  4013b0:	c3                   	retq   
  4013b1:	eb 00                	jmp    4013b3 <main+0x503>
  4013b3:	48 89 c3             	mov    %rax,%rbx
  4013b6:	48 8b 7c 24 08       	mov    0x8(%rsp),%rdi
  4013bb:	4c 39 f7             	cmp    %r14,%rdi
  4013be:	74 05                	je     4013c5 <main+0x515>
  4013c0:	e8 5b f8 ff ff       	callq  400c20 <_ZdlPv@plt>
  4013c5:	48 8b 2c 24          	mov    (%rsp),%rbp
  4013c9:	48 c7 44 24 28 10 18 	movq   $0x401810,0x28(%rsp)
  4013d0:	40 00 
  4013d2:	48 8b 7c 24 30       	mov    0x30(%rsp),%rdi
  4013d7:	48 85 ff             	test   %rdi,%rdi
  4013da:	74 05                	je     4013e1 <main+0x531>
  4013dc:	e8 3f f8 ff ff       	callq  400c20 <_ZdlPv@plt>
  4013e1:	48 85 ed             	test   %rbp,%rbp
  4013e4:	74 08                	je     4013ee <main+0x53e>
  4013e6:	48 89 ef             	mov    %rbp,%rdi
  4013e9:	e8 32 f8 ff ff       	callq  400c20 <_ZdlPv@plt>
  4013ee:	48 89 df             	mov    %rbx,%rdi
  4013f1:	e8 1a f9 ff ff       	callq  400d10 <_Unwind_Resume@plt>
  4013f6:	48 89 c3             	mov    %rax,%rbx
  4013f9:	eb 15                	jmp    401410 <main+0x560>
  4013fb:	48 89 c3             	mov    %rax,%rbx
  4013fe:	48 8b bc 24 c8 00 00 	mov    0xc8(%rsp),%rdi
  401405:	00 
  401406:	4c 39 e7             	cmp    %r12,%rdi
  401409:	74 05                	je     401410 <main+0x560>
  40140b:	e8 10 f8 ff ff       	callq  400c20 <_ZdlPv@plt>
  401410:	48 8b bc 24 a8 00 00 	mov    0xa8(%rsp),%rdi
  401417:	00 
  401418:	48 8d 84 24 b8 00 00 	lea    0xb8(%rsp),%rax
  40141f:	00 
  401420:	48 39 c7             	cmp    %rax,%rdi
  401423:	74 91                	je     4013b6 <main+0x506>
  401425:	e8 f6 f7 ff ff       	callq  400c20 <_ZdlPv@plt>
  40142a:	eb 8a                	jmp    4013b6 <main+0x506>
  40142c:	48 89 c3             	mov    %rax,%rbx
  40142f:	48 8b bc 24 e8 00 00 	mov    0xe8(%rsp),%rdi
  401436:	00 
  401437:	48 8d 84 24 f8 00 00 	lea    0xf8(%rsp),%rax
  40143e:	00 
  40143f:	48 39 c7             	cmp    %rax,%rdi
  401442:	0f 84 6e ff ff ff    	je     4013b6 <main+0x506>
  401448:	e8 d3 f7 ff ff       	callq  400c20 <_ZdlPv@plt>
  40144d:	e9 64 ff ff ff       	jmpq   4013b6 <main+0x506>
  401452:	48 89 c3             	mov    %rax,%rbx
  401455:	48 8b ac 24 90 00 00 	mov    0x90(%rsp),%rbp
  40145c:	00 
  40145d:	eb 82                	jmp    4013e1 <main+0x531>
  40145f:	e8 7c f8 ff ff       	callq  400ce0 <_ZSt17__throw_bad_allocv@plt>
  401464:	e9 2f fb ff ff       	jmpq   400f98 <main+0xe8>
  401469:	48 89 2c 24          	mov    %rbp,(%rsp)
  40146d:	48 89 c3             	mov    %rax,%rbx
  401470:	e9 50 ff ff ff       	jmpq   4013c5 <main+0x515>
  401475:	66 2e 0f 1f 84 00 00 	nopw   %cs:0x0(%rax,%rax,1)
  40147c:	00 00 00 
  40147f:	90                   	nop

0000000000401480 <_ZN24CollectionSourceOperatorISt5tupleIJllllEEE9printNameEv>:
  401480:	bf 40 23 60 00       	mov    $0x602340,%edi
  401485:	be 88 18 40 00       	mov    $0x401888,%esi
  40148a:	ba 0e 00 00 00       	mov    $0xe,%edx
  40148f:	e9 0c f8 ff ff       	jmpq   400ca0 <_ZSt16__ostream_insertIcSt11char_traitsIcEERSt13basic_ostreamIT_T0_ES6_PKS3_l@plt>
  401494:	66 2e 0f 1f 84 00 00 	nopw   %cs:0x0(%rax,%rax,1)
  40149b:	00 00 00 
  40149e:	66 90                	xchg   %ax,%ax

00000000004014a0 <_ZN24CollectionSourceOperatorISt5tupleIJllllEEE4openEv>:
  4014a0:	48 8b 47 08          	mov    0x8(%rdi),%rax
  4014a4:	48 89 47 20          	mov    %rax,0x20(%rdi)
  4014a8:	c3                   	retq   
  4014a9:	0f 1f 80 00 00 00 00 	nopl   0x0(%rax)

00000000004014b0 <_ZNSt6vectorISt5tupleIJllllEESaIS1_EE19_M_emplace_back_auxIJS1_EEEvDpOT_>:
  4014b0:	41 57                	push   %r15
  4014b2:	41 56                	push   %r14
  4014b4:	41 55                	push   %r13
  4014b6:	41 54                	push   %r12
  4014b8:	53                   	push   %rbx
  4014b9:	49 89 f4             	mov    %rsi,%r12
  4014bc:	49 89 fe             	mov    %rdi,%r14
  4014bf:	49 8b 46 08          	mov    0x8(%r14),%rax
  4014c3:	49 2b 06             	sub    (%r14),%rax
  4014c6:	48 c1 f8 05          	sar    $0x5,%rax
  4014ca:	b9 01 00 00 00       	mov    $0x1,%ecx
  4014cf:	48 0f 45 c8          	cmovne %rax,%rcx
  4014d3:	4c 8d 3c 01          	lea    (%rcx,%rax,1),%r15
  4014d7:	4c 89 fa             	mov    %r15,%rdx
  4014da:	48 c1 ea 3b          	shr    $0x3b,%rdx
  4014de:	48 ba ff ff ff ff ff 	movabs $0x7ffffffffffffff,%rdx
  4014e5:	ff ff 07 
  4014e8:	4c 0f 45 fa          	cmovne %rdx,%r15
  4014ec:	48 01 c1             	add    %rax,%rcx
  4014ef:	4c 0f 42 fa          	cmovb  %rdx,%r15
  4014f3:	4c 89 f8             	mov    %r15,%rax
  4014f6:	48 c1 e8 3b          	shr    $0x3b,%rax
  4014fa:	0f 85 0a 01 00 00    	jne    40160a <_ZNSt6vectorISt5tupleIJllllEESaIS1_EE19_M_emplace_back_auxIJS1_EEEvDpOT_+0x15a>
  401500:	49 c1 e7 05          	shl    $0x5,%r15
  401504:	4c 89 ff             	mov    %r15,%rdi
  401507:	e8 f4 f7 ff ff       	callq  400d00 <_Znwm@plt>
  40150c:	49 89 c5             	mov    %rax,%r13
  40150f:	49 8b 3e             	mov    (%r14),%rdi
  401512:	49 8b 46 08          	mov    0x8(%r14),%rax
  401516:	48 89 c1             	mov    %rax,%rcx
  401519:	48 29 f9             	sub    %rdi,%rcx
  40151c:	41 0f 10 04 24       	movups (%r12),%xmm0
  401521:	41 0f 11 44 0d 00    	movups %xmm0,0x0(%r13,%rcx,1)
  401527:	41 0f 10 44 24 10    	movups 0x10(%r12),%xmm0
  40152d:	41 0f 11 44 0d 10    	movups %xmm0,0x10(%r13,%rcx,1)
  401533:	4c 89 eb             	mov    %r13,%rbx
  401536:	0f 84 a8 00 00 00    	je     4015e4 <_ZNSt6vectorISt5tupleIJllllEESaIS1_EE19_M_emplace_back_auxIJS1_EEEvDpOT_+0x134>
  40153c:	48 8d 48 e0          	lea    -0x20(%rax),%rcx
  401540:	48 29 f9             	sub    %rdi,%rcx
  401543:	49 89 c8             	mov    %rcx,%r8
  401546:	49 c1 e8 05          	shr    $0x5,%r8
  40154a:	48 0f ba e1 05       	bt     $0x5,%rcx
  40154f:	72 29                	jb     40157a <_ZNSt6vectorISt5tupleIJllllEESaIS1_EE19_M_emplace_back_auxIJS1_EEEvDpOT_+0xca>
  401551:	48 8b 17             	mov    (%rdi),%rdx
  401554:	49 89 55 00          	mov    %rdx,0x0(%r13)
  401558:	48 8b 57 08          	mov    0x8(%rdi),%rdx
  40155c:	49 89 55 08          	mov    %rdx,0x8(%r13)
  401560:	48 8b 57 10          	mov    0x10(%rdi),%rdx
  401564:	49 89 55 10          	mov    %rdx,0x10(%r13)
  401568:	48 8b 57 18          	mov    0x18(%rdi),%rdx
  40156c:	49 89 55 18          	mov    %rdx,0x18(%r13)
  401570:	48 8d 77 20          	lea    0x20(%rdi),%rsi
  401574:	49 8d 55 20          	lea    0x20(%r13),%rdx
  401578:	eb 06                	jmp    401580 <_ZNSt6vectorISt5tupleIJllllEESaIS1_EE19_M_emplace_back_auxIJS1_EEEvDpOT_+0xd0>
  40157a:	4c 89 ea             	mov    %r13,%rdx
  40157d:	48 89 fe             	mov    %rdi,%rsi
  401580:	4d 85 c0             	test   %r8,%r8
  401583:	74 56                	je     4015db <_ZNSt6vectorISt5tupleIJllllEESaIS1_EE19_M_emplace_back_auxIJS1_EEEvDpOT_+0x12b>
  401585:	66 66 2e 0f 1f 84 00 	data16 nopw %cs:0x0(%rax,%rax,1)
  40158c:	00 00 00 00 
  401590:	48 8b 1e             	mov    (%rsi),%rbx
  401593:	48 89 1a             	mov    %rbx,(%rdx)
  401596:	48 8b 5e 08          	mov    0x8(%rsi),%rbx
  40159a:	48 89 5a 08          	mov    %rbx,0x8(%rdx)
  40159e:	48 8b 5e 10          	mov    0x10(%rsi),%rbx
  4015a2:	48 89 5a 10          	mov    %rbx,0x10(%rdx)
  4015a6:	48 8b 5e 18          	mov    0x18(%rsi),%rbx
  4015aa:	48 89 5a 18          	mov    %rbx,0x18(%rdx)
  4015ae:	48 8b 5e 20          	mov    0x20(%rsi),%rbx
  4015b2:	48 89 5a 20          	mov    %rbx,0x20(%rdx)
  4015b6:	48 8b 5e 28          	mov    0x28(%rsi),%rbx
  4015ba:	48 89 5a 28          	mov    %rbx,0x28(%rdx)
  4015be:	48 8b 5e 30          	mov    0x30(%rsi),%rbx
  4015c2:	48 89 5a 30          	mov    %rbx,0x30(%rdx)
  4015c6:	48 8b 5e 38          	mov    0x38(%rsi),%rbx
  4015ca:	48 89 5a 38          	mov    %rbx,0x38(%rdx)
  4015ce:	48 83 c6 40          	add    $0x40,%rsi
  4015d2:	48 83 c2 40          	add    $0x40,%rdx
  4015d6:	48 39 c6             	cmp    %rax,%rsi
  4015d9:	75 b5                	jne    401590 <_ZNSt6vectorISt5tupleIJllllEESaIS1_EE19_M_emplace_back_auxIJS1_EEEvDpOT_+0xe0>
  4015db:	48 83 e1 e0          	and    $0xffffffffffffffe0,%rcx
  4015df:	4a 8d 5c 29 20       	lea    0x20(%rcx,%r13,1),%rbx
  4015e4:	48 83 c3 20          	add    $0x20,%rbx
  4015e8:	48 85 ff             	test   %rdi,%rdi
  4015eb:	74 05                	je     4015f2 <_ZNSt6vectorISt5tupleIJllllEESaIS1_EE19_M_emplace_back_auxIJS1_EEEvDpOT_+0x142>
  4015ed:	e8 2e f6 ff ff       	callq  400c20 <_ZdlPv@plt>
  4015f2:	4d 89 2e             	mov    %r13,(%r14)
  4015f5:	49 89 5e 08          	mov    %rbx,0x8(%r14)
  4015f9:	4d 01 fd             	add    %r15,%r13
  4015fc:	4d 89 6e 10          	mov    %r13,0x10(%r14)
  401600:	5b                   	pop    %rbx
  401601:	41 5c                	pop    %r12
  401603:	41 5d                	pop    %r13
  401605:	41 5e                	pop    %r14
  401607:	41 5f                	pop    %r15
  401609:	c3                   	retq   
  40160a:	e8 d1 f6 ff ff       	callq  400ce0 <_ZSt17__throw_bad_allocv@plt>
  40160f:	90                   	nop

0000000000401610 <_ZN9__gnu_cxx12__to_xstringINSt7__cxx1112basic_stringIcSt11char_traitsIcESaIcEEEcEET_PFiPT0_mPKS8_P13__va_list_tagEmSB_z>:
  401610:	41 56                	push   %r14
  401612:	53                   	push   %rbx
  401613:	48 81 ec f8 00 00 00 	sub    $0xf8,%rsp
  40161a:	49 89 fe             	mov    %rdi,%r14
  40161d:	84 c0                	test   %al,%al
  40161f:	74 31                	je     401652 <_ZN9__gnu_cxx12__to_xstringINSt7__cxx1112basic_stringIcSt11char_traitsIcESaIcEEEcEET_PFiPT0_mPKS8_P13__va_list_tagEmSB_z+0x42>
  401621:	0f 29 44 24 30       	movaps %xmm0,0x30(%rsp)
  401626:	0f 29 4c 24 40       	movaps %xmm1,0x40(%rsp)
  40162b:	0f 29 54 24 50       	movaps %xmm2,0x50(%rsp)
  401630:	0f 29 5c 24 60       	movaps %xmm3,0x60(%rsp)
  401635:	0f 29 64 24 70       	movaps %xmm4,0x70(%rsp)
  40163a:	0f 29 ac 24 80 00 00 	movaps %xmm5,0x80(%rsp)
  401641:	00 
  401642:	0f 29 b4 24 90 00 00 	movaps %xmm6,0x90(%rsp)
  401649:	00 
  40164a:	0f 29 bc 24 a0 00 00 	movaps %xmm7,0xa0(%rsp)
  401651:	00 
  401652:	4c 89 4c 24 28       	mov    %r9,0x28(%rsp)
  401657:	4c 89 44 24 20       	mov    %r8,0x20(%rsp)
  40165c:	48 8d 04 24          	lea    (%rsp),%rax
  401660:	48 89 84 24 e0 00 00 	mov    %rax,0xe0(%rsp)
  401667:	00 
  401668:	48 8d 84 24 10 01 00 	lea    0x110(%rsp),%rax
  40166f:	00 
  401670:	48 89 84 24 d8 00 00 	mov    %rax,0xd8(%rsp)
  401677:	00 
  401678:	c7 84 24 d4 00 00 00 	movl   $0x30,0xd4(%rsp)
  40167f:	30 00 00 00 
  401683:	c7 84 24 d0 00 00 00 	movl   $0x20,0xd0(%rsp)
  40168a:	20 00 00 00 
  40168e:	48 8d bc 24 b0 00 00 	lea    0xb0(%rsp),%rdi
  401695:	00 
  401696:	48 8d 8c 24 d0 00 00 	lea    0xd0(%rsp),%rcx
  40169d:	00 
  40169e:	be 20 00 00 00       	mov    $0x20,%esi
  4016a3:	ba 97 18 40 00       	mov    $0x401897,%edx
  4016a8:	e8 03 f6 ff ff       	callq  400cb0 <vsnprintf@plt>
  4016ad:	48 63 d8             	movslq %eax,%rbx
  4016b0:	49 8d 46 10          	lea    0x10(%r14),%rax
  4016b4:	49 89 06             	mov    %rax,(%r14)
  4016b7:	48 89 9c 24 f0 00 00 	mov    %rbx,0xf0(%rsp)
  4016be:	00 
  4016bf:	83 fb 0f             	cmp    $0xf,%ebx
  4016c2:	76 21                	jbe    4016e5 <_ZN9__gnu_cxx12__to_xstringINSt7__cxx1112basic_stringIcSt11char_traitsIcESaIcEEEcEET_PFiPT0_mPKS8_P13__va_list_tagEmSB_z+0xd5>
  4016c4:	48 8d b4 24 f0 00 00 	lea    0xf0(%rsp),%rsi
  4016cb:	00 
  4016cc:	31 d2                	xor    %edx,%edx
  4016ce:	4c 89 f7             	mov    %r14,%rdi
  4016d1:	e8 6a f5 ff ff       	callq  400c40 <_ZNSt7__cxx1112basic_stringIcSt11char_traitsIcESaIcEE9_M_createERmm@plt>
  4016d6:	49 89 06             	mov    %rax,(%r14)
  4016d9:	48 8b 8c 24 f0 00 00 	mov    0xf0(%rsp),%rcx
  4016e0:	00 
  4016e1:	49 89 4e 10          	mov    %rcx,0x10(%r14)
  4016e5:	48 85 db             	test   %rbx,%rbx
  4016e8:	74 24                	je     40170e <_ZN9__gnu_cxx12__to_xstringINSt7__cxx1112basic_stringIcSt11char_traitsIcESaIcEEEcEET_PFiPT0_mPKS8_P13__va_list_tagEmSB_z+0xfe>
  4016ea:	48 83 fb 01          	cmp    $0x1,%rbx
  4016ee:	75 0b                	jne    4016fb <_ZN9__gnu_cxx12__to_xstringINSt7__cxx1112basic_stringIcSt11char_traitsIcESaIcEEEcEET_PFiPT0_mPKS8_P13__va_list_tagEmSB_z+0xeb>
  4016f0:	8a 8c 24 b0 00 00 00 	mov    0xb0(%rsp),%cl
  4016f7:	88 08                	mov    %cl,(%rax)
  4016f9:	eb 13                	jmp    40170e <_ZN9__gnu_cxx12__to_xstringINSt7__cxx1112basic_stringIcSt11char_traitsIcESaIcEEEcEET_PFiPT0_mPKS8_P13__va_list_tagEmSB_z+0xfe>
  4016fb:	48 8d b4 24 b0 00 00 	lea    0xb0(%rsp),%rsi
  401702:	00 
  401703:	48 89 c7             	mov    %rax,%rdi
  401706:	48 89 da             	mov    %rbx,%rdx
  401709:	e8 22 f6 ff ff       	callq  400d30 <memcpy@plt>
  40170e:	48 8b 84 24 f0 00 00 	mov    0xf0(%rsp),%rax
  401715:	00 
  401716:	49 89 46 08          	mov    %rax,0x8(%r14)
  40171a:	49 8b 0e             	mov    (%r14),%rcx
  40171d:	c6 04 01 00          	movb   $0x0,(%rcx,%rax,1)
  401721:	4c 89 f0             	mov    %r14,%rax
  401724:	48 81 c4 f8 00 00 00 	add    $0xf8,%rsp
  40172b:	5b                   	pop    %rbx
  40172c:	41 5e                	pop    %r14
  40172e:	c3                   	retq   
  40172f:	90                   	nop

0000000000401730 <__libc_csu_init>:
  401730:	41 57                	push   %r15
  401732:	41 56                	push   %r14
  401734:	41 89 ff             	mov    %edi,%r15d
  401737:	41 55                	push   %r13
  401739:	41 54                	push   %r12
  40173b:	4c 8d 25 be 08 20 00 	lea    0x2008be(%rip),%r12        # 602000 <__frame_dummy_init_array_entry>
  401742:	55                   	push   %rbp
  401743:	48 8d 2d c6 08 20 00 	lea    0x2008c6(%rip),%rbp        # 602010 <__init_array_end>
  40174a:	53                   	push   %rbx
  40174b:	49 89 f6             	mov    %rsi,%r14
  40174e:	49 89 d5             	mov    %rdx,%r13
  401751:	4c 29 e5             	sub    %r12,%rbp
  401754:	48 83 ec 08          	sub    $0x8,%rsp
  401758:	48 c1 fd 03          	sar    $0x3,%rbp
  40175c:	e8 77 f4 ff ff       	callq  400bd8 <_init>
  401761:	48 85 ed             	test   %rbp,%rbp
  401764:	74 20                	je     401786 <__libc_csu_init+0x56>
  401766:	31 db                	xor    %ebx,%ebx
  401768:	0f 1f 84 00 00 00 00 	nopl   0x0(%rax,%rax,1)
  40176f:	00 
  401770:	4c 89 ea             	mov    %r13,%rdx
  401773:	4c 89 f6             	mov    %r14,%rsi
  401776:	44 89 ff             	mov    %r15d,%edi
  401779:	41 ff 14 dc          	callq  *(%r12,%rbx,8)
  40177d:	48 83 c3 01          	add    $0x1,%rbx
  401781:	48 39 eb             	cmp    %rbp,%rbx
  401784:	75 ea                	jne    401770 <__libc_csu_init+0x40>
  401786:	48 83 c4 08          	add    $0x8,%rsp
  40178a:	5b                   	pop    %rbx
  40178b:	5d                   	pop    %rbp
  40178c:	41 5c                	pop    %r12
  40178e:	41 5d                	pop    %r13
  401790:	41 5e                	pop    %r14
  401792:	41 5f                	pop    %r15
  401794:	c3                   	retq   
  401795:	90                   	nop
  401796:	66 2e 0f 1f 84 00 00 	nopw   %cs:0x0(%rax,%rax,1)
  40179d:	00 00 00 

00000000004017a0 <__libc_csu_fini>:
  4017a0:	f3 c3                	repz retq 

Disassembly of section .fini:

00000000004017a4 <_fini>:
  4017a4:	48 83 ec 08          	sub    $0x8,%rsp
  4017a8:	48 83 c4 08          	add    $0x8,%rsp
  4017ac:	c3                   	retq   
